target datalayout = "e-m:e-p270:32:32-p271:32:32-p272:64:64-i64:64-i128:128-f80:128-n8:16:32:64-S128"
target triple = "x86_64-pc-linux-gnu"

%class.btSequentialImpulseConstraintSolver = type { %class.btConstraintSolver, %class.btAlignedObjectArray, %class.btAlignedObjectArray.0, %class.btAlignedObjectArray.0, %class.btAlignedObjectArray.0, %class.btAlignedObjectArray.0, %class.btAlignedObjectArray.2, %class.btAlignedObjectArray.2, %class.btAlignedObjectArray.2, %class.btAlignedObjectArray.4, i32, i32, %class.btAlignedObjectArray.2, ptr, ptr, ptr, i32, float, i64, %struct.btSolverAnalyticsData }
%class.btConstraintSolver = type { ptr }
%class.btAlignedObjectArray = type <{ [4 x i8], i32, i32, [4 x i8], ptr, i8, [7 x i8] }>
%class.btAlignedObjectArray.0 = type <{ [4 x i8], i32, i32, [4 x i8], ptr, i8, [7 x i8] }>
%class.btAlignedObjectArray.4 = type <{ [4 x i8], i32, i32, [4 x i8], ptr, i8, [7 x i8] }>
%class.btAlignedObjectArray.2 = type <{ [4 x i8], i32, i32, [4 x i8], ptr, i8, [7 x i8] }>
%struct.btSolverAnalyticsData = type { i32, i32, i32, i32, i32, double }

; Function Attrs: mustprogress nounwind uwtable
define dso_local void @_ZN35btSequentialImpulseConstraintSolver20setupSolverFunctionsEb(ptr noundef nonnull align 8 dereferenceable(408) %0, i1 noundef zeroext %1) #1 align 2 {
  %3 = alloca ptr, align 8
  %4 = alloca i8, align 1
  store ptr %0, ptr %3, align 8, !tbaa !12
  %5 = zext i1 %1 to i8
  store i8 %5, ptr %4, align 1, !tbaa !57
  %6 = load ptr, ptr %3, align 8
  %7 = getelementptr inbounds nuw %class.btSequentialImpulseConstraintSolver, ptr %6, i32 0, i32 13
  store ptr @_ZL51gResolveSingleConstraintRowGeneric_scalar_referenceR12btSolverBodyS0_RK18btSolverConstraint, ptr %7, align 8, !tbaa !18
  %8 = getelementptr inbounds nuw %class.btSequentialImpulseConstraintSolver, ptr %6, i32 0, i32 14
  store ptr @_ZL54gResolveSingleConstraintRowLowerLimit_scalar_referenceR12btSolverBodyS0_RK18btSolverConstraint, ptr %8, align 8, !tbaa !36
  %9 = getelementptr inbounds nuw %class.btSequentialImpulseConstraintSolver, ptr %6, i32 0, i32 15
  store ptr @_ZL48gResolveSplitPenetrationImpulse_scalar_referenceR12btSolverBodyS0_RK18btSolverConstraint, ptr %9, align 8, !tbaa !58
  %10 = load i8, ptr %4, align 1, !tbaa !57, !range !59, !noundef !60
  %11 = trunc i8 %10 to i1
  br i1 %11, label %12, label %13

12:                                               ; preds = %2
  br label %13

13:                                               ; preds = %12, %2
  ret void
}