; Function Attrs: mustprogress nofree norecurse nosync nounwind willreturn memory(argmem: write) uwtable
define dso_local void @_ZN35btSequentialImpulseConstraintSolver20setupSolverFunctionsEb(ptr noundef nonnull writeonly align 8 captures(none) dereferenceable(408) initializes((336, 360)) %0, i1 noundef zeroext %1) local_unnamed_addr #1 align 2 {
  %3 = getelementptr inbounds nuw i8, ptr %0, i64 336
  store ptr @_ZL51gResolveSingleConstraintRowGeneric_scalar_referenceR12btSolverBodyS0_RK18btSolverConstraint, ptr %3, align 8, !tbaa !4
  %4 = getelementptr inbounds nuw i8, ptr %0, i64 344
  store ptr @_ZL54gResolveSingleConstraintRowLowerLimit_scalar_referenceR12btSolverBodyS0_RK18btSolverConstraint, ptr %4, align 8, !tbaa !28
  %5 = getelementptr inbounds nuw i8, ptr %0, i64 352
  store ptr @_ZL48gResolveSplitPenetrationImpulse_scalar_referenceR12btSolverBodyS0_RK18btSolverConstraint, ptr %5, align 8, !tbaa !53
  ret void
}